
intro:     file format elf64-x86-64


Disassembly of section .text:

0000000000401000 <.text>:
  401000:	48 8d 04 25 01 00 00 	lea    0x1,%rax
  401007:	00 
  401008:	0f 05                	syscall 
  40100a:	c3                   	retq   
  40100b:	48 8d 04 25 02 00 00 	lea    0x2,%rax
  401012:	00 
  401013:	0f 05                	syscall 
  401015:	c3                   	retq   
  401016:	48 8d 04 25 03 00 00 	lea    0x3,%rax
  40101d:	00 
  40101e:	0f 05                	syscall 
  401020:	c3                   	retq   
  401021:	48 8d 04 25 3c 00 00 	lea    0x3c,%rax
  401028:	00 
  401029:	0f 05                	syscall 
  40102b:	c3                   	retq   
  40102c:	55                   	push   %rbp
  40102d:	48 89 e5             	mov    %rsp,%rbp
  401030:	48 83 ec 40          	sub    $0x40,%rsp
  401034:	48 b8 01 0d 0f 12 74 	movabs $0x73767a74120f0d01,%rax
  40103b:	7a 76 73 
  40103e:	48 ba 39 15 27 2e 21 	movabs $0x272f2d212e271539,%rdx
  401045:	2d 2f 27 
  401048:	48 89 45 c0          	mov    %rax,-0x40(%rbp)
  40104c:	48 89 55 c8          	mov    %rdx,-0x38(%rbp)
  401050:	48 b8 1d 36 2d 1d 36 	movabs $0x1d272a361d2d361d,%rax
  401057:	2a 27 1d 
  40105a:	48 ba 35 27 27 29 1d 	movabs $0x1d77721d29272735,%rdx
  401061:	72 77 1d 
  401064:	48 89 45 d0          	mov    %rax,-0x30(%rbp)
  401068:	48 89 55 d8          	mov    %rdx,-0x28(%rbp)
  40106c:	48 b8 27 32 2b 31 2d 	movabs $0x1d27262d312b3227,%rax
  401073:	26 27 1d 
  401076:	48 ba 2d 24 1d 74 7a 	movabs $0x3f73767a741d242d,%rdx
  40107d:	76 73 3f 
  401080:	48 89 45 e0          	mov    %rax,-0x20(%rbp)
  401084:	48 89 55 e8          	mov    %rdx,-0x18(%rbp)
  401088:	66 c7 45 f0 00 00    	movw   $0x0,-0x10(%rbp)
  40108e:	48 8d 45 c0          	lea    -0x40(%rbp),%rax
  401092:	48 89 45 f8          	mov    %rax,-0x8(%rbp)
  401096:	ba a4 01 00 00       	mov    $0x1a4,%edx
  40109b:	be 41 00 00 00       	mov    $0x41,%esi
  4010a0:	48 8d 3d 59 0f 00 00 	lea    0xf59(%rip),%rdi        # 0x402000
  4010a7:	e8 5f ff ff ff       	callq  0x40100b
  4010ac:	89 45 f4             	mov    %eax,-0xc(%rbp)
  4010af:	eb 2d                	jmp    0x4010de
  4010b1:	48 8b 45 f8          	mov    -0x8(%rbp),%rax
  4010b5:	0f b6 00             	movzbl (%rax),%eax
  4010b8:	83 f0 42             	xor    $0x42,%eax
  4010bb:	89 c2                	mov    %eax,%edx
  4010bd:	48 8b 45 f8          	mov    -0x8(%rbp),%rax
  4010c1:	88 10                	mov    %dl,(%rax)
  4010c3:	48 8b 4d f8          	mov    -0x8(%rbp),%rcx
  4010c7:	8b 45 f4             	mov    -0xc(%rbp),%eax
  4010ca:	ba 01 00 00 00       	mov    $0x1,%edx
  4010cf:	48 89 ce             	mov    %rcx,%rsi
  4010d2:	89 c7                	mov    %eax,%edi
  4010d4:	e8 27 ff ff ff       	callq  0x401000
  4010d9:	48 83 45 f8 01       	addq   $0x1,-0x8(%rbp)
  4010de:	48 8b 45 f8          	mov    -0x8(%rbp),%rax
  4010e2:	0f b6 00             	movzbl (%rax),%eax
  4010e5:	84 c0                	test   %al,%al
  4010e7:	75 c8                	jne    0x4010b1
  4010e9:	8b 45 f4             	mov    -0xc(%rbp),%eax
  4010ec:	89 c7                	mov    %eax,%edi
  4010ee:	e8 23 ff ff ff       	callq  0x401016
  4010f3:	bf 00 00 00 00       	mov    $0x0,%edi
  4010f8:	e8 24 ff ff ff       	callq  0x401021
